target datalayout = "e-m:e-p270:32:32-p271:32:32-p272:64:64-i64:64-i128:128-f80:128-n8:16:32:64-S128"
target triple = "x86_64-pc-linux-gnu"

%struct.mbedtls_pk_info_t = type { i32, ptr, ptr, ptr, ptr, ptr, ptr, ptr, ptr, ptr, ptr, ptr }
%struct.mbedtls_pk_context = type { ptr, ptr }

; Function Attrs: mustprogress uwtable
define hidden i32 @mbedtls_pk_encrypt(ptr noundef %0, ptr noundef %1, i64 noundef %2, ptr noundef %3, ptr noundef %4, i64 noundef %5, ptr noundef %6, ptr noundef %7) #1 {
  %9 = alloca i32, align 4
  %10 = alloca ptr, align 8
  %11 = alloca ptr, align 8
  %12 = alloca i64, align 8
  %13 = alloca ptr, align 8
  %14 = alloca ptr, align 8
  %15 = alloca i64, align 8
  %16 = alloca ptr, align 8
  %17 = alloca ptr, align 8
  store ptr %0, ptr %10, align 8, !tbaa !3
  store ptr %1, ptr %11, align 8, !tbaa !22
  store i64 %2, ptr %12, align 8, !tbaa !23
  store ptr %3, ptr %13, align 8, !tbaa !22
  store ptr %4, ptr %14, align 8, !tbaa !27
  store i64 %5, ptr %15, align 8, !tbaa !23
  store ptr %6, ptr %16, align 8, !tbaa !25
  store ptr %7, ptr %17, align 8, !tbaa !25
  br label %18

18:                                               ; preds = %8
  br label %19

19:                                               ; preds = %18
  br label %20

20:                                               ; preds = %19
  br label %21

21:                                               ; preds = %20
  br label %22

22:                                               ; preds = %21
  br label %23

23:                                               ; preds = %22
  br label %24

24:                                               ; preds = %23
  br label %25

25:                                               ; preds = %24
  %26 = load ptr, ptr %10, align 8, !tbaa !3
  %27 = getelementptr inbounds nuw %struct.mbedtls_pk_context, ptr %26, i32 0, i32 0
  %28 = load ptr, ptr %27, align 8, !tbaa !8
  %29 = icmp eq ptr %28, null
  br i1 %29, label %30, label %31

30:                                               ; preds = %25
  store i32 -16000, ptr %9, align 4
  br label %56

31:                                               ; preds = %25
  %32 = load ptr, ptr %10, align 8, !tbaa !3
  %33 = getelementptr inbounds nuw %struct.mbedtls_pk_context, ptr %32, i32 0, i32 0
  %34 = load ptr, ptr %33, align 8, !tbaa !8
  %35 = getelementptr inbounds nuw %struct.mbedtls_pk_info_t, ptr %34, i32 0, i32 7
  %36 = load ptr, ptr %35, align 8, !tbaa !33
  %37 = icmp eq ptr %36, null
  br i1 %37, label %38, label %39

38:                                               ; preds = %31
  store i32 -16128, ptr %9, align 4
  br label %56

39:                                               ; preds = %31
  %40 = load ptr, ptr %10, align 8, !tbaa !3
  %41 = getelementptr inbounds nuw %struct.mbedtls_pk_context, ptr %40, i32 0, i32 0
  %42 = load ptr, ptr %41, align 8, !tbaa !8
  %43 = getelementptr inbounds nuw %struct.mbedtls_pk_info_t, ptr %42, i32 0, i32 7
  %44 = load ptr, ptr %43, align 8, !tbaa !33
  %45 = load ptr, ptr %10, align 8, !tbaa !3
  %46 = getelementptr inbounds nuw %struct.mbedtls_pk_context, ptr %45, i32 0, i32 1
  %47 = load ptr, ptr %46, align 8, !tbaa !11
  %48 = load ptr, ptr %11, align 8, !tbaa !22
  %49 = load i64, ptr %12, align 8, !tbaa !23
  %50 = load ptr, ptr %13, align 8, !tbaa !22
  %51 = load ptr, ptr %14, align 8, !tbaa !27
  %52 = load i64, ptr %15, align 8, !tbaa !23
  %53 = load ptr, ptr %16, align 8, !tbaa !25
  %54 = load ptr, ptr %17, align 8, !tbaa !25
  %55 = call noundef i32 %44(ptr noundef %47, ptr noundef %48, i64 noundef %49, ptr noundef %50, ptr noundef %51, i64 noundef %52, ptr noundef %53, ptr noundef %54)
  store i32 %55, ptr %9, align 4
  br label %56

56:                                               ; preds = %39, %38, %30
  %57 = load i32, ptr %9, align 4
  ret i32 %57
}